ARM GAS  C:\Users\Andreas\AppData\Local\Temp\ccPzs5KQ.s 			page 1


   1              		.syntax unified
   2              		.cpu cortex-m3
   3              		.fpu softvfp
   4              		.eabi_attribute 20, 1
   5              		.eabi_attribute 21, 1
   6              		.eabi_attribute 23, 3
   7              		.eabi_attribute 24, 1
   8              		.eabi_attribute 25, 1
   9              		.eabi_attribute 26, 1
  10              		.eabi_attribute 30, 1
  11              		.eabi_attribute 34, 1
  12              		.eabi_attribute 18, 4
  13              		.thumb
  14              		.syntax unified
  15              		.file	"main.c"
  16              		.text
  17              	.Ltext0:
  18              		.cfi_sections	.debug_frame
  19              		.section	.text.initI2C,"ax",%progbits
  20              		.align	2
  21              		.global	initI2C
  22              		.thumb
  23              		.thumb_func
  24              		.type	initI2C, %function
  25              	initI2C:
  26              	.LFB64:
  27              		.file 1 "main.c"
   1:main.c        **** /* ========================================
   2:main.c        ****  *
   3:main.c        ****  * Copyright YOUR COMPANY, THE YEAR
   4:main.c        ****  * All Rights Reserved
   5:main.c        ****  * UNPUBLISHED, LICENSED SOFTWARE.
   6:main.c        ****  *
   7:main.c        ****  * CONFIDENTIAL AD PROPRIETARY INFORMATION
   8:main.c        ****  * WHICH IS THE PROPERTY OF your company.
   9:main.c        ****  *
  10:main.c        ****  * ========================================
  11:main.c        **** */
  12:main.c        **** #include "project.h"
  13:main.c        **** 
  14:main.c        **** void initI2C(void);
  15:main.c        **** void udrulning(void);
  16:main.c        **** 
  17:main.c        **** /*! \mainpage Snor Maskine
  18:main.c        ****  *
  19:main.c        ****  * This project helps user to draw shapes.
  20:main.c        ****  * Currently two types of shapes can be drawn:
  21:main.c        ****  * - \subpage Snor "Main fra snorhåndtering PSoC"
  22:main.c        ****  *
  23:main.c        ****  * - \subpage Dosering "Main fra dosering PSoC"
  24:main.c        ****  *
  25:main.c        ****  */ 
  26:main.c        **** 
  27:main.c        **** /*! \page Snor Main fra snorhåndtering PSoC
  28:main.c        ****  *
  29:main.c        ****  * så bobbe det virker
  30:main.c        ****  * \include <main.c
ARM GAS  C:\Users\Andreas\AppData\Local\Temp\ccPzs5KQ.s 			page 2


  31:main.c        ****  *
  32:main.c        ****  */
  33:main.c        **** 
  34:main.c        **** /*! \page Dosering Main fra dosering PSoC
  35:main.c        ****  *
  36:main.c        ****  *
  37:main.c        ****  * \include <Doserings_main
  38:main.c        ****  */
  39:main.c        **** 
  40:main.c        **** 
  41:main.c        **** 
  42:main.c        **** /*!
  43:main.c        **** *Decleration of the buffer size which is used in thee function void initI2C(void). It is written as
  44:main.c        **** */
  45:main.c        **** int BUFFER_SIZE = 6;
  46:main.c        **** 
  47:main.c        **** /*!
  48:main.c        **** *Here is the buffer set, it is the one that initI2C(void) uses. It is preset to have six spots of 0
  49:main.c        **** */
  50:main.c        **** uint8 buffer[]= {0,0,0,0,0,0};
  51:main.c        **** 
  52:main.c        **** /*!
  53:main.c        **** *   In main the program is put together in the start the function initI2C() is called.
  54:main.c        **** *   After that there is an infinity for loop wich runs the udrulning() function.
  55:main.c        **** */
  56:main.c        **** int main(void)
  57:main.c        **** {
  58:main.c        ****     CyGlobalIntEnable; /* Enable global interrupts. */
  59:main.c        ****     
  60:main.c        ****     initI2C();
  61:main.c        ****     
  62:main.c        ****     for(;;)
  63:main.c        ****     {
  64:main.c        ****         udrulning();
  65:main.c        ****     }
  66:main.c        **** }
  67:main.c        **** 
  68:main.c        **** /*!
  69:main.c        **** *
  70:main.c        **** *To init the I2C function, firstly we start the I2C that we placed in the topdesign.
  71:main.c        **** *Secondly the I2C Write Buf is initialized, this is the buf that the master writes too. It is the p
  72:main.c        **** *The last line do clear the buffer, the PSoC can have problems with it's topdesigns if you dont cle
  73:main.c        **** */
  74:main.c        **** void initI2C(void)
  75:main.c        **** {
  28              		.loc 1 75 0
  29              		.cfi_startproc
  30              		@ args = 0, pretend = 0, frame = 0
  31              		@ frame_needed = 0, uses_anonymous_args = 0
  32 0000 08B5     		push	{r3, lr}
  33              		.cfi_def_cfa_offset 8
  34              		.cfi_offset 3, -8
  35              		.cfi_offset 14, -4
  76:main.c        ****     I2C_1_Start();
  36              		.loc 1 76 0
  37 0002 FFF7FEFF 		bl	I2C_1_Start
  38              	.LVL0:
ARM GAS  C:\Users\Andreas\AppData\Local\Temp\ccPzs5KQ.s 			page 3


  77:main.c        ****     uint8 *buf = &buffer[0];
  78:main.c        ****     I2C_1_SlaveInitWriteBuf(buf, BUFFER_SIZE);
  39              		.loc 1 78 0
  40 0006 044B     		ldr	r3, .L3
  41 0008 1978     		ldrb	r1, [r3]	@ zero_extendqisi2
  42 000a 0448     		ldr	r0, .L3+4
  43 000c FFF7FEFF 		bl	I2C_1_SlaveInitWriteBuf
  44              	.LVL1:
  79:main.c        ****     I2C_1_SlaveClearWriteBuf();
  45              		.loc 1 79 0
  46 0010 FFF7FEFF 		bl	I2C_1_SlaveClearWriteBuf
  47              	.LVL2:
  48 0014 08BD     		pop	{r3, pc}
  49              	.L4:
  50 0016 00BF     		.align	2
  51              	.L3:
  52 0018 00000000 		.word	.LANCHOR0
  53 001c 00000000 		.word	.LANCHOR1
  54              		.cfi_endproc
  55              	.LFE64:
  56              		.size	initI2C, .-initI2C
  57              		.section	.text.udrulning,"ax",%progbits
  58              		.align	2
  59              		.global	udrulning
  60              		.thumb
  61              		.thumb_func
  62              		.type	udrulning, %function
  63              	udrulning:
  64              	.LFB65:
  80:main.c        **** }
  81:main.c        **** 
  82:main.c        **** /*!
  83:main.c        **** *  This function will first tjek on the write slave flag, if it is low nothing will happen but the 
  84:main.c        **** *  To turn on the motor the PWM in the topdesign will be used. When the motor is done running, the 
  85:main.c        **** */
  86:main.c        **** void udrulning(void)
  87:main.c        **** {
  65              		.loc 1 87 0
  66              		.cfi_startproc
  67              		@ args = 0, pretend = 0, frame = 0
  68              		@ frame_needed = 0, uses_anonymous_args = 0
  69 0000 10B5     		push	{r4, lr}
  70              		.cfi_def_cfa_offset 8
  71              		.cfi_offset 4, -8
  72              		.cfi_offset 14, -4
  88:main.c        ****     
  89:main.c        ****     if(I2C_1_SlaveStatus() & I2C_1_SSTAT_WR_CMPLT)
  73              		.loc 1 89 0
  74 0002 FFF7FEFF 		bl	I2C_1_SlaveStatus
  75              	.LVL3:
  76 0006 10F0100F 		tst	r0, #16
  77 000a 0BD1     		bne	.L9
  78 000c 10BD     		pop	{r4, pc}
  79              	.LVL4:
  80              	.L8:
  81              	.LBB2:
  90:main.c        ****         {
ARM GAS  C:\Users\Andreas\AppData\Local\Temp\ccPzs5KQ.s 			page 4


  91:main.c        ****             uint8 i = 0;
  92:main.c        ****             for(i = 0;i < buffer[0];++i)
  93:main.c        ****             {
  94:main.c        ****                 PWM_1_Start();
  82              		.loc 1 94 0 discriminator 3
  83 000e FFF7FEFF 		bl	PWM_1_Start
  84              	.LVL5:
  95:main.c        ****                 CyDelay(5000);
  85              		.loc 1 95 0 discriminator 3
  86 0012 41F28830 		movw	r0, #5000
  87 0016 FFF7FEFF 		bl	CyDelay
  88              	.LVL6:
  96:main.c        ****                 PWM_1_Stop();
  89              		.loc 1 96 0 discriminator 3
  90 001a FFF7FEFF 		bl	PWM_1_Stop
  91              	.LVL7:
  92:main.c        ****             {
  92              		.loc 1 92 0 discriminator 3
  93 001e 0134     		adds	r4, r4, #1
  94              	.LVL8:
  95 0020 E4B2     		uxtb	r4, r4
  96              	.LVL9:
  97 0022 00E0     		b	.L6
  98              	.LVL10:
  99              	.L9:
 100              	.LBE2:
 101 0024 0024     		movs	r4, #0
 102              	.L6:
 103              	.LVL11:
 104              	.LBB3:
  92:main.c        ****             {
 105              		.loc 1 92 0 is_stmt 0 discriminator 1
 106 0026 044B     		ldr	r3, .L11
 107 0028 1B78     		ldrb	r3, [r3]	@ zero_extendqisi2
 108 002a 9C42     		cmp	r4, r3
 109 002c EFD3     		bcc	.L8
  97:main.c        ****             }
  98:main.c        ****             I2C_1_SlaveClearWriteBuf();
 110              		.loc 1 98 0 is_stmt 1
 111 002e FFF7FEFF 		bl	I2C_1_SlaveClearWriteBuf
 112              	.LVL12:
  99:main.c        ****             I2C_1_SlaveClearWriteStatus();
 113              		.loc 1 99 0
 114 0032 FFF7FEFF 		bl	I2C_1_SlaveClearWriteStatus
 115              	.LVL13:
 116 0036 10BD     		pop	{r4, pc}
 117              	.LVL14:
 118              	.L12:
 119              		.align	2
 120              	.L11:
 121 0038 00000000 		.word	.LANCHOR1
 122              	.LBE3:
 123              		.cfi_endproc
 124              	.LFE65:
 125              		.size	udrulning, .-udrulning
 126              		.section	.text.main,"ax",%progbits
 127              		.align	2
ARM GAS  C:\Users\Andreas\AppData\Local\Temp\ccPzs5KQ.s 			page 5


 128              		.global	main
 129              		.thumb
 130              		.thumb_func
 131              		.type	main, %function
 132              	main:
 133              	.LFB63:
  57:main.c        ****     CyGlobalIntEnable; /* Enable global interrupts. */
 134              		.loc 1 57 0
 135              		.cfi_startproc
 136              		@ Volatile: function does not return.
 137              		@ args = 0, pretend = 0, frame = 0
 138              		@ frame_needed = 0, uses_anonymous_args = 0
 139 0000 08B5     		push	{r3, lr}
 140              		.cfi_def_cfa_offset 8
 141              		.cfi_offset 3, -8
 142              		.cfi_offset 14, -4
  58:main.c        ****     
 143              		.loc 1 58 0
 144              		.syntax unified
 145              	@ 58 "main.c" 1
 146 0002 62B6     		CPSIE   i
 147              	@ 0 "" 2
  60:main.c        ****     
 148              		.loc 1 60 0
 149              		.thumb
 150              		.syntax unified
 151 0004 FFF7FEFF 		bl	initI2C
 152              	.LVL15:
 153              	.L14:
  64:main.c        ****     }
 154              		.loc 1 64 0 discriminator 1
 155 0008 FFF7FEFF 		bl	udrulning
 156              	.LVL16:
 157 000c FCE7     		b	.L14
 158              		.cfi_endproc
 159              	.LFE63:
 160              		.size	main, .-main
 161              		.global	buffer
 162              		.global	BUFFER_SIZE
 163 000e 00BF     		.data
 164              		.align	2
 165              		.set	.LANCHOR0,. + 0
 166              		.type	BUFFER_SIZE, %object
 167              		.size	BUFFER_SIZE, 4
 168              	BUFFER_SIZE:
 169 0000 06000000 		.word	6
 170              		.bss
 171              		.align	2
 172              		.set	.LANCHOR1,. + 0
 173              		.type	buffer, %object
 174              		.size	buffer, 6
 175              	buffer:
 176 0000 00000000 		.space	6
 176      0000
 177              		.text
 178              	.Letext0:
 179              		.file 2 "c:\\program files (x86)\\cypress\\psoc creator\\4.2\\psoc creator\\import\\gnu\\arm\\5.4.
ARM GAS  C:\Users\Andreas\AppData\Local\Temp\ccPzs5KQ.s 			page 6


 180              		.file 3 "c:\\program files (x86)\\cypress\\psoc creator\\4.2\\psoc creator\\import\\gnu\\arm\\5.4.
 181              		.file 4 "Generated_Source\\PSoC5/cytypes.h"
 182              		.file 5 "Generated_Source\\PSoC5/core_cm3.h"
 183              		.file 6 "Generated_Source\\PSoC5/I2C_1.h"
 184              		.file 7 "Generated_Source\\PSoC5/PWM_1.h"
 185              		.file 8 "Generated_Source\\PSoC5/CyLib.h"